target datalayout = "e-m:e-p270:32:32-p271:32:32-p272:64:64-i64:64-i128:128-f80:128-n8:16:32:64-S128"
target triple = "x86_64-pc-linux-gnu"

%struct._object = type { i64, ptr }
%"struct.nanobind::detail::cleanup_list" = type { i32, i32, ptr, [6 x ptr] }

; Function Attrs: inlinehint mustprogress uwtable
define internal void @_ZL10_Py_DECREFP7_object(ptr noundef %0) #13 {
  %2 = alloca ptr, align 8
  store ptr %0, ptr %2, align 8
  %3 = load ptr, ptr %2, align 8
  %4 = getelementptr inbounds nuw %struct._object, ptr %3, i32 0, i32 0
  %5 = load i64, ptr %4, align 8
  %6 = add nsw i64 %5, -1
  store i64 %6, ptr %4, align 8
  %7 = icmp ne i64 %6, 0
  br i1 %7, label %8, label %9

8:                                                ; preds = %1
  br label %11

9:                                                ; preds = %1
  %10 = load ptr, ptr %2, align 8
  call void @_Py_Dealloc(ptr noundef %10)
  br label %11

11:                                               ; preds = %9, %8
  ret void
}

; Function Attrs: mustprogress nounwind uwtable
define void @_ZN8nanobind6detail12cleanup_list7releaseEv(ptr noundef nonnull align 8 dereferenceable(64) %0) #4 align 2 personality ptr @__gxx_personality_v0 {
  %2 = alloca ptr, align 8
  %3 = alloca i64, align 8
  store ptr %0, ptr %2, align 8
  %4 = load ptr, ptr %2, align 8
  call void @llvm.lifetime.start.p0(i64 8, ptr %3) #20
  store i64 1, ptr %3, align 8
  br label %5

5:                                                ; preds = %19, %1
  %6 = load i64, ptr %3, align 8
  %7 = getelementptr inbounds nuw %"struct.nanobind::detail::cleanup_list", ptr %4, i32 0, i32 0
  %8 = load i32, ptr %7, align 8
  %9 = zext i32 %8 to i64
  %10 = icmp ult i64 %6, %9
  br i1 %10, label %12, label %11

11:                                               ; preds = %5
  call void @llvm.lifetime.end.p0(i64 8, ptr %3) #20
  br label %22

12:                                               ; preds = %5
  %13 = getelementptr inbounds nuw %"struct.nanobind::detail::cleanup_list", ptr %4, i32 0, i32 2
  %14 = load ptr, ptr %13, align 8
  %15 = load i64, ptr %3, align 8
  %16 = getelementptr inbounds nuw ptr, ptr %14, i64 %15
  %17 = load ptr, ptr %16, align 8
  invoke void @_ZL10_Py_DECREFP7_object(ptr noundef %17)
          to label %18 unwind label %31

18:                                               ; preds = %12
  br label %19

19:                                               ; preds = %18
  %20 = load i64, ptr %3, align 8
  %21 = add i64 %20, 1
  store i64 %21, ptr %3, align 8
  br label %5, !llvm.loop !3

22:                                               ; preds = %11
  %23 = getelementptr inbounds nuw %"struct.nanobind::detail::cleanup_list", ptr %4, i32 0, i32 1
  %24 = load i32, ptr %23, align 4
  %25 = icmp ne i32 %24, 6
  br i1 %25, label %26, label %29

26:                                               ; preds = %22
  %27 = getelementptr inbounds nuw %"struct.nanobind::detail::cleanup_list", ptr %4, i32 0, i32 2
  %28 = load ptr, ptr %27, align 8
  call void @free(ptr noundef %28) #20
  br label %29

29:                                               ; preds = %26, %22
  %30 = getelementptr inbounds nuw %"struct.nanobind::detail::cleanup_list", ptr %4, i32 0, i32 2
  store ptr null, ptr %30, align 8
  ret void

31:                                               ; preds = %12
  %32 = landingpad { ptr, i32 }
          catch ptr null
  %33 = extractvalue { ptr, i32 } %32, 0
  call void @__clang_call_terminate(ptr %33) #22
  unreachable
}