; Function Attrs: mustprogress nounwind uwtable
define void @_ZN8nanobind6detail12cleanup_list7releaseEv(ptr noundef nonnull align 8 captures(none) dereferenceable(64) %0) local_unnamed_addr #9 align 2 personality ptr @__gxx_personality_v0 {
  %2 = load i32, ptr %0, align 8
  %3 = icmp ugt i32 %2, 1
  br i1 %3, label %.lr.ph, label %._crit_edge

.lr.ph:                                           ; preds = %1
  %4 = getelementptr inbounds nuw i8, ptr %0, i64 8
  br label %7

._crit_edge:                                      ; preds = %_ZL10_Py_DECREFP7_object.exit, %1
  %5 = getelementptr inbounds nuw i8, ptr %0, i64 4
  %6 = load i32, ptr %5, align 4
  %.not = icmp eq i32 %6, 6
  br i1 %.not, label %21, label %18

7:                                                ; preds = %.lr.ph, %_ZL10_Py_DECREFP7_object.exit
  %.03 = phi i64 [ 1, %.lr.ph ], [ %14, %_ZL10_Py_DECREFP7_object.exit ]
  %8 = load ptr, ptr %4, align 8
  %9 = getelementptr inbounds nuw ptr, ptr %8, i64 %.03
  %10 = load ptr, ptr %9, align 8
  %11 = load i64, ptr %10, align 8
  %12 = add nsw i64 %11, -1
  store i64 %12, ptr %10, align 8
  %.not.i = icmp eq i64 %12, 0
  br i1 %.not.i, label %13, label %_ZL10_Py_DECREFP7_object.exit

13:                                               ; preds = %7
  invoke void @_Py_Dealloc(ptr noundef nonnull %10)
          to label %_ZL10_Py_DECREFP7_object.exit unwind label %23

_ZL10_Py_DECREFP7_object.exit:                    ; preds = %7, %13
  %14 = add nuw nsw i64 %.03, 1
  %15 = load i32, ptr %0, align 8
  %16 = zext i32 %15 to i64
  %17 = icmp samesign ult i64 %14, %16
  br i1 %17, label %7, label %._crit_edge, !llvm.loop !5

18:                                               ; preds = %._crit_edge
  %19 = getelementptr inbounds nuw i8, ptr %0, i64 8
  %20 = load ptr, ptr %19, align 8
  tail call void @free(ptr noundef %20) #27
  br label %21

21:                                               ; preds = %18, %._crit_edge
  %22 = getelementptr inbounds nuw i8, ptr %0, i64 8
  store ptr null, ptr %22, align 8
  ret void

23:                                               ; preds = %13
  %24 = landingpad { ptr, i32 }
          catch ptr null
  %25 = extractvalue { ptr, i32 } %24, 0
  tail call void @__clang_call_terminate(ptr %25) #29
  unreachable
}